; ModuleID = 'source-C-CXX/44/467.c'
source_filename = "source-C-CXX/44/467.c"
target datalayout = "e-m:e-p270:32:32-p271:32:32-p272:64:64-i64:64-f80:128-n8:16:32:64-S128"
target triple = "x86_64-pc-linux-gnu"

@.str = private unnamed_addr constant [6 x i8] c"%s %s\00", align 1
@.str.1 = private unnamed_addr constant [3 x i8] c"%d\00", align 1

; Function Attrs: nofree nounwind sspstrong uwtable
define dso_local void @main() local_unnamed_addr #0 {
  %1 = alloca [200 x i8], align 16
  %2 = alloca [100 x i8], align 16
  %3 = ptrtoint [100 x i8]* %2 to i64
  %4 = getelementptr inbounds [200 x i8], [200 x i8]* %1, i64 0, i64 0
  call void @llvm.lifetime.start.p0i8(i64 200, i8* nonnull %4) #5
  %5 = getelementptr inbounds [100 x i8], [100 x i8]* %2, i64 0, i64 0
  call void @llvm.lifetime.start.p0i8(i64 100, i8* nonnull %5) #5
  %6 = call i32 (i8*, ...) @__isoc99_scanf(i8* getelementptr inbounds ([6 x i8], [6 x i8]* @.str, i64 0, i64 0), i8* nonnull %4, i8* nonnull %5)
  %7 = call i8* @strstr(i8* noundef nonnull %5, i8* noundef nonnull %4) #6
  %8 = ptrtoint i8* %7 to i64
  %9 = sub i64 %8, %3
  %10 = call i64 @llvm.umin.i64(i64 %9, i64 99)
  br label %11

11:                                               ; preds = %30, %0
  %12 = phi i64 [ 0, %0 ], [ %31, %30 ]
  %13 = icmp eq i64 %12, %9
  %14 = add nuw nsw i64 %12, 1
  %15 = icmp eq i64 %14, %9
  %16 = select i1 %13, i1 true, i1 %15
  %17 = add nuw nsw i64 %12, 2
  %18 = icmp eq i64 %17, %9
  %19 = select i1 %16, i1 true, i1 %18
  %20 = add nuw nsw i64 %12, 3
  %21 = icmp eq i64 %20, %9
  %22 = select i1 %19, i1 true, i1 %21
  %23 = add nuw nsw i64 %12, 4
  %24 = icmp eq i64 %23, %9
  %25 = select i1 %22, i1 true, i1 %24
  br i1 %25, label %26, label %30

26:                                               ; preds = %11
  %27 = trunc i64 %10 to i32
  %28 = call i32 (i8*, ...) @printf(i8* nonnull dereferenceable(1) getelementptr inbounds ([3 x i8], [3 x i8]* @.str.1, i64 0, i64 0), i32 %27)
  br label %29

29:                                               ; preds = %30, %26
  call void @llvm.lifetime.end.p0i8(i64 100, i8* nonnull %5) #5
  call void @llvm.lifetime.end.p0i8(i64 200, i8* nonnull %4) #5
  ret void

30:                                               ; preds = %11
  %31 = add nuw nsw i64 %12, 5
  %32 = icmp eq i64 %31, 100
  br i1 %32, label %29, label %11, !llvm.loop !5
}

; Function Attrs: argmemonly mustprogress nofree nosync nounwind willreturn
declare void @llvm.lifetime.start.p0i8(i64 immarg, i8* nocapture) #1

; Function Attrs: nofree nounwind
declare noundef i32 @__isoc99_scanf(i8* nocapture noundef readonly, ...) local_unnamed_addr #2

; Function Attrs: argmemonly mustprogress nofree nounwind readonly willreturn
declare i8* @strstr(i8*, i8* nocapture) local_unnamed_addr #3

; Function Attrs: nofree nounwind
declare noundef i32 @printf(i8* nocapture noundef readonly, ...) local_unnamed_addr #2

; Function Attrs: argmemonly mustprogress nofree nosync nounwind willreturn
declare void @llvm.lifetime.end.p0i8(i64 immarg, i8* nocapture) #1

; Function Attrs: nofree nosync nounwind readnone speculatable willreturn
declare i64 @llvm.umin.i64(i64, i64) #4


!llvm.module.flags = !{!0, !1, !2, !3}
!llvm.ident = !{!4}

!0 = !{i32 1, !"wchar_size", i32 4}
!1 = !{i32 7, !"PIC Level", i32 2}
!2 = !{i32 7, !"PIE Level", i32 2}
!3 = !{i32 7, !"uwtable", i32 1}
!4 = !{!"clang version 13.0.0"}
!5 = distinct !{!5, !6}
!6 = !{!"llvm.loop.mustprogress"}
